ctraits.traits
__newobj__
p1
(cmicroscopes
SuperResolutionMicroscope
p2
tRp3
(dp4
S'__traits_version__'
p5
S'4.6.0'
p6
sS'GLOBALS'
p7
g1
(ccfg
Globals
p8
tRp9
(dp10
S'STATUS'
p11
S'IDLE'
p12
sS'AUTOLOAD_PATH'
p13
S'/home/joe/Dropbox/PyCharmProjects/SRM1.1/autosave.cfg'
p14
sS'DEVICE_NUMBERS'
p15
ccopy_reg
_reconstructor
p16
(ctraits.trait_handlers
TraitListObject
p17
c__builtin__
list
p18
(lp19
I0
aI1
aI2
atRp20
(dp21
S'name_items'
p22
S'DEVICE_NUMBERS_items'
p23
sS'name'
p24
g15
sbsS'FILE_DIR'
p25
S'/home/joe/Dropbox/PyCharmProjects/SRM1.1'
p26
sS'DAQ_DEFAULT_DEVICE_NUMBER'
p27
I2
sS'AUTOLOAD_ONSTART'
p28
I00
sS'AUTOSAVE_PATH'
p29
S'/home/joe/Dropbox/PyCharmProjects/SRM1.1/autosave.cfg'
p30
sg5
g6
sS'TEMPDIR'
p31
g26
sS'STAGE_DEFAULT_AXIS'
p32
I1
sS'ICON_DIR'
p33
S'/home/joe/Dropbox/PyCharmProjects/SRM1.1/icons'
p34
sS'STAGE_AXES'
p35
g16
(g17
g18
(lp36
I1
aI2
aI3
atRp37
(dp38
g22
S'STAGE_AXES_items'
p39
sg24
g35
sbsS'DIRTY'
p40
I01
sS'STAGE_DEFAULT_COM'
p41
S'COM5'
p42
sS'DEBUG'
p43
I00
sS'MOCK_STAGE'
p44
I01
sS'DAQ_DEFAULT_COM'
p45
S'COM4'
p46
sS'MAX_SIZE'
p47
I2000
sS'MOCK_DAQ'
p48
I01
sbsS'managers'
p49
g16
(g17
g18
(lp50
g1
(cexperiment_manager
ExperimentManager
p51
tRp52
(dp53
S'experiments'
p54
g16
(g17
g18
(lp55
g1
(cexperiments
SWSynchronizedScan
p56
tRp57
(dp58
g5
g6
sS'sel_axis'
p59
NsS'done_callback'
p60
ctraits.trait_base
_Undefined
p61
(tRp62
sS'paused'
p63
I00
sS'measurement'
p64
NsS'perc_done'
p65
F0
sS'ndone'
p66
I0
sS'measurements'
p67
g16
(g17
g18
(ltRp68
(dp69
g22
S'measurements_items'
p70
sg24
g67
sbsS'pre_allocate_memory'
p71
I01
sS'user_wants_stop'
p72
I00
sS'add_meas_type'
p73
S'Counter Measurement'
p74
sS'status'
p75
cconstants
ExperimentStatus
p76
(I0
tRp77
sS'start_time'
p78
F0
sS'every_step_callback'
p79
g62
sS'volume'
p80
(F0.001
F0.001
F0.001
tp81
sS'debug'
p82
I00
sS'running'
p83
I00
sS'scan_center'
p84
(F0
F0
F0
tp85
sS'axis_control'
p86
g1
(cmanual_controls
XYZStageController
p87
tRp88
(dp89
g5
g6
sS'step_nm'
p90
F2
sS'RL_rev'
p91
I00
sg24
S'Stage Navigator'
p92
sS'UD'
p93
I3
sS'mapping'
p94
(dp95
S'B'
S'FB'
p96
sS'D'
g93
sS'F'
g96
sS'L'
S'RL'
p97
sS'R'
g97
sS'U'
g93
ssS'pos_nm'
p98
F0
sg96
I2
sS'step_factor'
p99
I1
sS'pos_um'
p100
F0
sS'UD_rev'
p101
I00
sg97
I1
sS'FB_rev'
p102
I00
sS'pos_mm'
p103
F0
sS'reverse'
p104
g16
(g17
g18
(ltRp105
(dp106
g22
S'reverse_items'
p107
sg24
g104
sbsbsS'perc_done_bar'
p108
V
sg24
S'SW Synchronized Scan'
p109
sS'positions'
p110
cnumpy.core.multiarray
_reconstruct
p111
(cnumpy
ndarray
p112
(I0
tS'b'
tRp113
(I1
(I1
I3
tcnumpy
dtype
p114
(S'f8'
I0
I1
tRp115
(I3
S'<'
NNNI-1
I-1
I0
tbI00
S'\x00\x00\x00\x00\x00\x00\x00\x00\x00\x00\x00\x00\x00\x00\x00\x00\x00\x00\x00\x00\x00\x00\x00\x00'
tbsS'pos_idx'
p116
(I0
I0
I0
tp117
sS'steps'
p118
(F5.0000000000000002e-05
F5.0000000000000002e-05
F5.0000000000000002e-05
tp119
sS'end_time'
p120
F0
sS'scan_axes'
p121
g16
(g17
g18
(lp122
g1
(cscan_axes
CartesianScanAxis
p123
tRp124
(dp125
g5
g6
sg104
I00
sS'axis_name'
p126
S'Z'
sS'axis_num'
p127
I3
sS'pos_indx'
p128
I0
sS'controller'
p129
g1
(ccontrollers
MockMicronixStageController
p130
tRp131
(dp132
g5
g6
sS'parity'
p133
I00
sS'handshake'
p134
I00
sS'com_port'
p135
S''
sS'stop_bits'
p136
cpyvisa.constants
StopBits
p137
(I10
tRp138
sS'baud_rate'
p139
I38400
sS'write_termination'
p140
S'\r'
sS'id_str'
p141
S''
sS'timeout'
p142
I1000
sS'read_termination'
p143
S'\r'
sS'data_bits'
p144
I8
sS'_positions'
p145
g16
(ctraits.trait_handlers
TraitDictObject
p146
c__builtin__
dict
p147
(dtRp148
(dp149
g22
S'_positions_items'
p150
sg24
g145
sbsS'id_message'
p151
S'*IDN?'
p152
sS'backend'
p153
S'@py'
p154
sbsS'step_size'
p155
F0.01
sS'mode'
p156
S'move_abs'
p157
sS'start_pos'
p158
F0.10000000000000001
sS'stop_pos'
p159
F0.20000000000000001
sS'phy_name'
p160
S''
sS'reverse_at_end'
p161
I01
sbag1
(g123
tRp162
(dp163
g5
g6
sg104
I00
sg126
S'Y'
sg127
I2
sg128
I0
sg129
g131
sg155
F0.01
sg156
g157
sg158
F0.10000000000000001
sg159
F0.20000000000000001
sg160
S''
sg161
I01
sbag1
(g123
tRp164
(dp165
g5
g6
sg104
I00
sg126
S'X'
sg127
I1
sg128
I0
sg129
g131
sg155
F0.01
sg156
g157
sg158
F0.10000000000000001
sg159
F0.20000000000000001
sg160
S''
sg161
I01
sbatRp166
(dp167
g22
S'scan_axes_items'
p168
sg24
g121
sbsS'position'
p169
(F0
F0
F0
tp170
sS'queued'
p171
I00
sbatRp172
(dp173
g22
S'experiments_items'
p174
sg24
g54
sbsg5
g6
sS'experiment'
p175
NsS'add_type'
p176
S'SW Synchronized Scan'
p177
sg24
S'Manager'
p178
sbag1
(cdevice_manager
DeviceManager
p179
tRp180
(dp181
S'available'
p182
g16
(g17
g18
(lp183
cdevices
MicronixStage
p184
acdevices
NIDAQ
p185
acdevices
OpenCVCamera
p186
acdevices
OxxiusLaser
p187
acdevices
HamamatsuCameraGUI
p188
acdevices
MockCamera
p189
atRp190
(dp191
g22
S'available_items'
p192
sg24
g182
sbsS'included'
p193
g16
(g17
g18
(lp194
g184
ag185
ag186
ag187
ag188
ag189
atRp195
(dp196
g22
S'included_items'
p197
sg24
g193
sbsg5
g6
sg24
S'Devices'
p198
sS'devices'
p199
g16
(g17
g18
(lp200
g1
(g184
tRp201
(dp202
g5
g6
sS'feedback'
p203
I0
sS'encoder_res'
p204
F0
sS'pid'
p205
I0
sS'motor_pol'
p206
I0
sS'deadband'
p207
(I1
F0
tp208
sS'acceleration'
p209
F0
sS'error_log'
p210
g16
(g17
g18
(ltRp211
(dp212
g22
S'error_log_items'
p213
sg24
g210
sbsS'encoder_velocity'
p214
F0
sS'encoder_pol'
p215
I0
sS'version'
p216
S''
sS'io_function'
p217
I0
sS'provides'
p218
g16
(ctraits.trait_handlers
TraitSetObject
p219
c__builtin__
set
p220
(ltRp221
(dp222
g22
S'provides_items'
p223
sg24
g218
sbsS'pos_lim'
p224
F0
sS'status_names'
p225
g16
(g17
g18
(lp226
S'Error'
p227
aS'Accelerating'
p228
aS'Const. Velocity'
p229
aS'Decelerating'
p230
aS'Stopped'
p231
aS'Program Running'
p232
aS'Positive Switch'
p233
aS'Negetive Switch'
p234
atRp235
(dp236
g22
S'status_names_items'
p237
sg24
g225
sbsS'just_read'
p238
I01
sS'enable_limit'
p239
I0
sS'io_pin'
p240
I1
sS'encoder'
p241
I0
sg126
S'None'
p242
sg127
I1
sg24
S'Micronix Controller'
p243
sS'neg_lim'
p244
F0
sS'resolution'
p245
I0
sS'status_bits'
p246
(lp247
cnumpy.core.multiarray
scalar
p248
(g114
(S'u1'
I0
I1
tRp249
(I3
S'|'
NNNI-1
I-1
I0
tbS'\x00'
tRp250
ag248
(g249
S'\x00'
tRp251
ag248
(g249
S'\x00'
tRp252
ag248
(g249
S'\x00'
tRp253
ag248
(g249
S'\x00'
tRp254
ag248
(g249
S'\x00'
tRp255
ag248
(g249
S'\x00'
tRp256
ag248
(g249
S'\x00'
tRp257
asS'status_byte'
p258
I0
sg129
g1
(ccontrollers
MicronixStageController
p259
tRp260
(dp261
g5
g6
sg133
I00
sg134
I00
sg140
S'\n\r'
p262
sg136
g138
sS'ntries'
p263
I200
sg139
I38400
sg135
g42
sg141
S'MMC-110'
p264
sg142
I1000
sg143
g262
sg144
I8
sg153
g154
sg151
S'1VER?'
p265
sS'query_status_every'
p266
F0.040000000000000001
sbsS'max_velocity'
p267
F0
sS'max_acceleration'
p268
F0
sS'velocity'
p269
F0
sS'requires'
p270
g16
(g219
g220
(ltRp271
(dp272
g22
S'requires_items'
p273
sg24
g270
sbsS'deceleration'
p274
F0
sbag1
(g185
tRp275
(dp276
g5
g6
sS'di_line_names'
p277
g16
(g17
g18
(lp278
S'mock_di_line0'
p279
aS'mock_di_line1'
p280
aS'mock_di_line2'
p281
aS'mock_di_line3'
p282
aS'mock_di_line4'
p283
atRp284
(dp285
g22
S'di_line_names_items'
p286
sg24
g277
sbsS'tasks'
p287
g16
(g17
g18
(lp288
g1
(cdaq_control
MockDAQTask
p289
tRp290
(dp291
S'ext_start_trigger'
p292
I00
sg5
g6
sg72
I00
sS'run'
p293
I01
sg24
S'Mock Task'
p294
sS'clk_source'
p295
S'Internal'
p296
sS'clk_edge_name'
p297
S'Rising'
p298
sS'configured'
p299
I00
sS'start_trig_chan'
p300
NsS'sample_mode_name'
p301
S'FiniteSamps'
p302
sS'channels'
p303
g16
(g17
g18
(lp304
g1
(cdaq_control
MockChannel
p305
tRp306
(dp307
S'ndim'
p308
I3
sg5
g6
sS'phys_name'
p309
S'mock_ci0'
p310
sS'noise_factor'
p311
F0.01
sg24
S'Mock Channel'
p312
sS'_kind'
p313
g312
sS'nsamp'
p314
I100
sg142
F10
sg270
g16
(g219
g220
(lp315
cconstants
IOService
p316
((I1
I0
I0
tp317
tRp318
atRp319
(dp320
g22
S'requires_items'
p321
sg24
g270
sbsS'channel_type'
p322
S''
sg118
I100
sg218
g220
((lp323
g316
((I1
I1
I0
tp324
tRp325
ag316
((I1
I1
I3
tp326
tRp327
ag316
((I1
I1
I2
tp328
tRp329
ag316
((I1
I1
I1
tp330
tRp331
ag316
((I1
I1
I4
tp332
tRp333
atRp334
sS'user_name'
p335
S''
sS'amp'
p336
F1
sS'sigma_sqrd'
p337
F10
sS'center'
p338
I3
sbatRp339
(dp340
g22
S'channels_items'
p341
sg24
g303
sbsS'clk_rate'
p342
F10000
sg83
I00
sS'every_n_callback'
p343
g62
sg142
F1
sS'ext_clk_chan'
p344
NsS'start_trig_edge_name'
p345
g298
sS'add_kinds'
p346
g16
(g17
g18
(ltRp347
(dp348
g22
S'add_kinds_items'
p349
sg24
g346
sbsS'kind_options'
p350
g16
(g17
g18
(lp351
S'Measure Frequency'
p352
aS'Count Edges'
p353
aS'Measure Voltage'
p354
atRp355
(dp356
g22
S'kind_options_items'
p357
sg24
g350
sbsS'channel'
p358
g306
sg60
g62
sbatRp359
(dp360
g22
S'tasks_items'
p361
sg24
g287
sbsg24
S'Mock DAQ 1.0.0'
p362
sS'ao_chan_names'
p363
g16
(g17
g18
(lp364
S'mock_ao0'
p365
aS'mock_ao1'
p366
aS'mock_ao2'
p367
aS'mock_ao3'
p368
aS'mock_ao4'
p369
atRp370
(dp371
g22
S'ao_chan_names_items'
p372
sg24
g363
sbsS'add_kind'
p373
S'DAQ Task'
p374
sS'ai_chan_names'
p375
g16
(g17
g18
(lp376
S'mock_ai0'
p377
aS'mock_ai1'
p378
aS'mock_ai2'
p379
aS'mock_ai3'
p380
aS'mock_ai4'
p381
atRp382
(dp383
g22
S'ai_chan_names_items'
p384
sg24
g375
sbsg199
g16
(g17
g18
(lp385
S'Dev1'
p386
aS'Dev2'
p387
atRp388
(dp389
g22
S'devices_items'
p390
sg24
g199
sbsS'do_line_names'
p391
g16
(g17
g18
(lp392
S'mock_do_line0'
p393
aS'mock_do_line1'
p394
aS'mock_do_line2'
p395
aS'mock_do_line3'
p396
aS'mock_do_line4'
p397
atRp398
(dp399
g22
S'do_line_names_items'
p400
sg24
g391
sbsS'dev_name'
p401
g386
sS'task'
p402
Nsg218
g16
(g219
g220
(ltRp403
(dp404
g22
S'provides_items'
p405
sg24
g218
sbsS'di_port_names'
p406
g16
(g17
g18
(lp407
S'mock_di_port0'
p408
aS'mock_di_port1'
p409
aS'mock_di_port2'
p410
aS'mock_di_port3'
p411
aS'mock_di_port4'
p412
atRp413
(dp414
g22
S'di_port_names_items'
p415
sg24
g406
sbsS'co_chan_names'
p416
g16
(g17
g18
(lp417
S'mock_co0'
p418
aS'mock_co1'
p419
aS'mock_co2'
p420
aS'mock_co3'
p421
aS'mock_co4'
p422
atRp423
(dp424
g22
S'co_chan_names_items'
p425
sg24
g416
sbsS'dev_cat'
p426
S'Mock DAQ'
p427
sS'do_port_names'
p428
g16
(g17
g18
(lp429
S'mock_do_port0'
p430
aS'mock_do_port1'
p431
aS'mock_do_port2'
p432
aS'mock_do_port3'
p433
aS'mock_do_port4'
p434
atRp435
(dp436
g22
S'do_port_names_items'
p437
sg24
g428
sbsg270
g16
(g219
g220
(ltRp438
(dp439
g22
S'requires_items'
p440
sg24
g270
sbsS'model'
p441
S'1.0.0'
p442
sS'ci_chan_names'
p443
g16
(g17
g18
(lp444
g310
aS'mock_ci1'
p445
aS'mock_ci2'
p446
aS'mock_ci3'
p447
aS'mock_ci4'
p448
atRp449
(dp450
g22
S'ci_chan_names_items'
p451
sg24
g443
sbsbag1
(g186
tRp452
(dp453
g5
g6
sS'color_mode'
p454
S'GREYSCALE'
p455
sg24
S'Generic Camera'
p456
sS'image'
p457
g111
(g112
(I0
tS'b'
tRp458
(I1
(I0
tg114
(S'i8'
I0
I1
tRp459
(I3
S'<'
NNNI-1
I-1
I0
tbI00
S''
tbsS'recording'
p460
I00
sS'shape'
p461
(I480
I640
I3
tp462
sS'read_mode'
p463
cconstants
ReadMode
p464
(I0
tRp465
sS'gain'
p466
I1
sg218
g16
(g219
g220
(lp467
g316
((I2
I1
I0
tp468
tRp469
atRp470
(dp471
g22
S'provides_items'
p472
sg24
g218
sbsS'cam_num'
p473
I0
sS'initialized'
p474
I00
sS'buffer_size'
p475
I100
sg72
I00
sg270
g16
(g219
g220
(ltRp476
(dp477
g22
S'requires_items'
p478
sg24
g270
sbsS'exposure'
p479
I5
sbag1
(g187
tRp480
(dp481
S'base_plate_temp'
p482
F0
sg5
g6
sS'measured_diode_temp'
p483
F10
sS'cdrh_state'
p484
I0
sS'laser_diode_current'
p485
F0
sS'interlock_state'
p486
I0
sS'analog_control_mode'
p487
I0
sS'input_voltage'
p488
F5
sS'current_set_point'
p489
F0
sS'emission_activation'
p490
I0
sS'power_set_point'
p491
F0
sS'processor_temp'
p492
F0
sS'tec_enable'
p493
I0
sS'modulation_state'
p494
I1
sg218
g16
(g219
g220
(ltRp495
(dp496
g22
S'provides_items'
p497
sg24
g218
sbsS'cum_time_of_operation'
p498
F0
sS'digital_modulation_state'
p499
I0
sS'measured_module_temp'
p500
F5
sS'software_version'
p501
S''
sS'fault_number'
p502
I0
sS'max_laser_power'
p503
F500
sg238
I00
sS'max_laser_current'
p504
F1000
sg129
g1
(ccontrollers
OxxiusLaserController
p505
tRp506
(dp507
g5
g6
sg133
I00
sg134
I00
sg135
S''
sg24
S'OxxiusLaserController'
p508
sg136
g138
sg139
I19200
sg140
S'\n'
sS'settable'
p509
g16
(g17
g18
(lp510
S'analog_control_mode'
p511
aS'analog_modulation_state'
p512
aS'laser_diode_current'
p513
aS'cdrh_state'
p514
aS'modulation_state'
p515
aS'laser_emission_activation'
p516
aS'laser_output_power'
p517
aS'tec_state'
p518
aS'emission_activation'
p519
aS'alarm_reset'
p520
aS'tec_enable'
p521
aS'digital_modulation_state'
p522
atRp523
(dp524
g22
S'settable_items'
p525
sg24
g509
sbsg141
S''
sg142
I1000
sg143
S'\r\n'
p526
sg144
I8
sg151
g152
sg153
g154
sbsS'laser_output_power'
p527
F0
sS'report'
p528
S''
sS'diode_temp_set_point'
p529
F20
sg24
S'OxxiusLaser'
p530
sS'analog_modulation_state'
p531
I0
sS'laser_emission_activation'
p532
I0
sS'serial_num_and_wavelength'
p533
S''
sS'operating_status'
p534
I1
sg270
g16
(g219
g220
(ltRp535
(dp536
g22
S'requires_items'
p537
sg24
g270
sbsbag1
(g188
tRp538
(dp539
g5
g6
sg24
S'Hamamatsu Camera'
p540
sg460
I00
sg461
(I2048
I2048
tp541
sg463
g465
sg466
I1
sg218
g16
(g219
g220
(lp542
g469
atRp543
(dp544
g22
S'provides_items'
p545
sg24
g218
sbsg473
I0
sg474
I00
sg475
I100
sg72
I00
sg270
g16
(g219
g220
(ltRp546
(dp547
g22
S'requires_items'
p548
sg24
g270
sbsS'properties'
p549
g16
(g17
g18
(ltRp550
(dp551
g22
S'properties_items'
p552
sg24
g549
sbsg479
F0.001
sbag1
(g189
tRp553
(dp554
g5
g6
sS'frate'
p555
I50
sS'_shift'
p556
I0
sg460
I00
sg461
(I50
I50
tp557
sg463
g465
sg218
g16
(g219
g220
(lp558
g469
atRp559
(dp560
g22
S'provides_items'
p561
sg24
g218
sbsg475
I100
sg474
I00
sg72
I00
sg270
g16
(g219
g220
(ltRp562
(dp563
g22
S'requires_items'
p564
sg24
g270
sbsg24
S'Mock Camera'
p565
sbatRp566
(dp567
g22
S'devices_items'
p568
sg24
g199
sbsbag1
(ccontrol_manager
ControlManager
p569
tRp570
(dp571
g5
g6
sg24
S'Manual Controls'
p572
sS'controls'
p573
g16
(g17
g18
(lp574
g1
(cmanual_controls
ManualMeasurement
p575
tRp576
(dp577
g5
g6
sS'meas_time'
p578
I12
sg24
S'Measurement'
p579
sg67
g16
(g17
g18
(lp580
g1
(cmeasurements
CounterMeasurement
p581
tRp582
(dp583
S'current_idx'
p584
(tsS'update_mode'
p585
cconstants
UpdateDataMode
p586
(I4
tRp587
sS'display_options'
p588
g16
(g146
g147
(dp589
cconstants
DataDimension
p590
(I0
tRp591
cdata_viewers
OneDViewer
p592
sg590
(I1
tRp593
g592
sg590
(I2
tRp594
cdata_viewers
TwoDViewer
p595
sg590
(I3
tRp596
cdata_viewers
XYSliceBrowser
p597
stRp598
(dp599
g22
S'display_options_items'
p600
sg24
g588
sbsg24
S'Counter Measurement'
p601
sS'recorded_samples'
p602
g111
(g112
(I0
tS'b'
tRp603
(I1
(I0
tg459
I00
S''
tbsS'source'
p604
NsS'flex_mode'
p605
I00
sS'dtype'
p606
Nsg60
g62
sS'calc_diff'
p607
I00
sS'filename'
p608
S''
sS'save_results'
p609
I01
sS'current_samp'
p610
g111
(g112
(I0
tS'b'
tRp611
(I1
(I0
tg459
I00
S''
tbsS'preview_dim'
p612
g594
sg218
g16
(g219
g220
(ltRp613
(dp614
g22
S'provides_items'
p615
sg24
g218
sbsg110
g111
(g112
(I0
tS'b'
tRp616
(I1
(I0
tg459
I00
S''
tbsg474
I00
sS'every_N_callback'
p617
g62
sS'apply'
p618
S'median'
p619
sg5
g6
sbag1
(cmeasurements
VoltageMeasurement
p620
tRp621
(dp622
g584
(tsg585
g587
sg588
g16
(g146
g147
(dp623
g591
g592
sg593
g592
sg594
g595
sg596
g597
stRp624
(dp625
g22
S'display_options_items'
p626
sg24
g588
sbsg24
S'Voltage Measurement'
p627
sg610
g111
(g112
(I0
tS'b'
tRp628
(I1
(I0
tg459
I00
S''
tbsg605
I00
sg606
Nsg60
g62
sg607
I00
sg608
S''
sg609
I01
sg602
g111
(g112
(I0
tS'b'
tRp629
(I1
(I0
tg459
I00
S''
tbsg612
g594
sg604
Nsg218
g16
(g219
g220
(ltRp630
(dp631
g22
S'provides_items'
p632
sg24
g218
sbsg110
g111
(g112
(I0
tS'b'
tRp633
(I1
(I0
tg459
I00
S''
tbsg474
I00
sg617
g62
sg618
g619
sg5
g6
sS'channel_name'
p634
S''
sbatRp635
(dp636
g22
S'measurements_items'
p637
sg24
g67
sbsg176
S'Counter Measurement'
p638
sg63
I00
sS'max_num_points'
p639
I1000
sg83
I00
sS'sample_rate'
p640
I20
sg156
S'Rolling'
p641
sS'num_ticks'
p642
I0
sg64
g582
sg618
S'mean'
p643
sg72
I00
sbag88
ag1
(cmanual_controls
ManualCameraMeasurement
p644
tRp645
(dp646
g5
g6
sg66
I0
sg24
S'Camera and Stage'
p647
sS'camera_name'
p648
S'Mock Camera'
p649
sS'ncapt'
p650
I100
sg63
I00
sg83
I00
sg578
I10
sg156
S'Live'
p651
sS'fps'
p652
I20
sg474
I00
sg72
I00
sS'captured'
p653
g16
(g17
g18
(ltRp654
(dp655
g22
S'captured_items'
p656
sg24
g653
sbsbag1
(cmanual_controls
ManualStageControl
p657
tRp658
(dp659
g5
g6
sS'y_axis'
p660
g1
(cmanual_controls
ManualAxisControl
p661
tRp662
(dp663
S'up_name'
p664
S'Down'
p665
sg5
g6
sg24
S'Z'
sg129
g131
sg127
I3
sS'target_pos'
p666
F0
sg155
F0.001
sS'enable_mov'
p667
I00
sg100
F0
sg98
F0
sg169
(F0
F0
tp668
sg103
F0
sS'down_name'
p669
S'Up'
p670
sbsS'x_axis'
p671
g662
sS'z_axis'
p672
g662
sg24
S'Stage Position'
p673
sbatRp674
(dp675
g22
S'controls_items'
p676
sg24
g573
sbsbag1
(cglobal_state_manager
GlobalStateManager
p677
tRp678
(dp679
g5
g6
sS'global_states'
p680
g16
(g17
g18
(lp681
g1
(cglobal_states
MockDAQRead
p682
tRp683
(dp684
g5
g6
sg402
Nsg24
S'Mock DAQ Read'
p685
sS'device_manager'
p686
g180
sS'active'
p687
I00
sg474
I00
sg270
g220
((lp688
g325
atRp689
sbag1
(cglobal_states
MultiState
p690
tRp691
(dp692
g5
g6
sg24
S'Multi State'
p693
sg686
g180
sg373
S'Mock DAQ Read'
p694
sS'states'
p695
g16
(g17
g18
(lp696
g1
(cglobal_states
CameraRead
p697
tRp698
(dp699
g5
g6
sg24
S'Camera Read'
p700
sg686
g180
sS'cameras'
p701
g16
(g17
g18
(lp702
g553
atRp703
(dp704
g22
S'cameras_items'
p705
sg24
g701
sbsS'camera'
p706
g553
sg687
I00
sg474
I00
sg270
g220
((lp707
g469
atRp708
sbag1
(g682
tRp709
(dp710
g5
g6
sg402
g290
sg24
g685
sg686
g180
sg687
I00
sg474
I00
sg270
g689
sbatRp711
(dp712
g22
S'states_items'
p713
sg24
g695
sbsS'state'
p714
g709
sg687
I00
sg474
I00
sg270
g16
(g219
g220
(ltRp715
(dp716
g22
S'requires_items'
p717
sg24
g270
sbsbatRp718
(dp719
g22
S'global_states_items'
p720
sg24
g680
sbsg24
S'Global States'
p721
sS'active_state'
p722
NsS'selected_name'
p723
S'Multiple'
p724
sS'global_state'
p725
g691
sS'available_state_types'
p726
g16
(g17
g18
(lp727
g694
aS'DAQ Read'
p728
aS'Camera Read'
p729
aS'DAQ Write'
p730
ag724
atRp731
(dp732
g22
S'available_state_types_items'
p733
sg24
g726
sbsbatRp734
(dp735
g22
S'managers_items'
p736
sg24
g49
sbsg24
S'Microscope'
p737
sb.