ctraits.traits
__newobj__
p1
(cmicroscopes
SuperResolutionMicroscope
p2
tRp3
(dp4
S'__traits_version__'
p5
S'4.6.0'
p6
sS'GLOBALS'
p7
g1
(ccfg
Globals
p8
tRp9
(dp10
S'STATUS'
p11
S'IDLE'
p12
sS'AUTOLOAD_PATH'
p13
S'C:\\Users\\USER\\Dropbox\\PyCharmProjects\\SRM1.1\\autosave.cfg'
p14
sS'MOCK_STAGE'
p15
I00
sS'DEVICE_NUMBERS'
p16
ccopy_reg
_reconstructor
p17
(ctraits.trait_handlers
TraitListObject
p18
c__builtin__
list
p19
(lp20
I0
aI1
aI2
atRp21
(dp22
S'name_items'
p23
S'DEVICE_NUMBERS_items'
p24
sS'name'
p25
g16
sbsS'FILE_DIR'
p26
S'C:\\Users\\USER\\Dropbox\\PyCharmProjects\\SRM1.1'
p27
sS'DAQ_DEFAULT_DEVICE_NUMBER'
p28
I2
sS'AUTOLOAD_ONSTART'
p29
I00
sS'AUTOSAVE_PATH'
p30
S'C:\\Users\\USER\\Dropbox\\PyCharmProjects\\SRM1.1\\autosave.cfg'
p31
sg5
g6
sS'DEBUG'
p32
I00
sS'STAGE_DEFAULT_AXIS'
p33
I1
sS'ICON_DIR'
p34
S'C:\\Users\\USER\\Dropbox\\PyCharmProjects\\SRM1.1\\icons'
p35
sS'STAGE_AXES'
p36
g17
(g18
g19
(lp37
I1
aI2
aI3
atRp38
(dp39
g23
S'STAGE_AXES_items'
p40
sg25
g36
sbsS'DIRTY'
p41
I01
sS'STAGE_DEFAULT_COM'
p42
S'COM5'
p43
sS'TEMPDIR'
p44
g27
sS'AVAIL_PORTS'
p45
g17
(g18
g19
(lp46
S'COM1'
p47
aS'COM4'
p48
aS'COM5'
p49
aS'COM8'
p50
aS'COM9'
p51
atRp52
(dp53
g23
S'AVAIL_PORTS_items'
p54
sg25
g45
sbsS'COM_PORTS'
p55
g17
(g18
g19
(lp56
S'COM1'
p57
aS'COM4'
p58
aS'COM5'
p59
aS'COM8'
p60
aS'COM9'
p61
atRp62
(dp63
g23
S'COM_PORTS_items'
p64
sg25
g55
sbsS'DAQ_DEFAULT_COM'
p65
S'COM4'
p66
sS'MAX_SIZE'
p67
I2000
sS'MOCK_DAQ'
p68
I00
sbsS'managers'
p69
g17
(g18
g19
(lp70
g1
(cexperiment_manager
ExperimentManager
p71
tRp72
(dp73
S'experiments'
p74
g17
(g18
g19
(lp75
g1
(cexperiments
SWSynchronizedScan
p76
tRp77
(dp78
g5
g6
sS'sel_axis'
p79
g1
(cscan_axes
CartesianScanAxis
p80
tRp81
(dp82
g5
g6
sS'start_pos'
p83
F-0.00050000000000000001
sS'reverse'
p84
I00
sS'controller'
p85
g1
(ccontrollers
MicronixStageController
p86
tRp87
(dp88
g5
g6
sS'parity'
p89
I00
sS'handshake'
p90
I00
sS'com_port'
p91
g43
sg25
S'Micronix Controller'
p92
sS'stop_bits'
p93
cpyvisa.constants
StopBits
p94
(I10
tRp95
sS'ntries'
p96
I100
sS'timeout'
p97
I1000
sS'baud_rate'
p98
I38400
sS'write_termination'
p99
S'\n\r'
p100
sS'id_str'
p101
S'MMC-110'
p102
sS'provides'
p103
c__builtin__
set
p104
((lp105
cconstants
IOService
p106
((I3
I1
I0
tp107
tRp108
ag106
((I3
I2
I1
tp109
tRp110
ag106
((I3
I2
I2
tp111
tRp112
atRp113
sS'read_termination'
p114
g100
sS'data_bits'
p115
I8
sS'backend'
p116
S'@ni'
p117
sS'requires'
p118
g17
(ctraits.trait_handlers
TraitSetObject
p119
g104
(ltRp120
(dp121
g23
S'requires_items'
p122
sg25
g118
sbsS'id_message'
p123
S'1VER?'
p124
sS'query_status_every'
p125
F0.01
sbsS'axis_num'
p126
I1
sS'pos_indx'
p127
I0
sS'axis_name'
p128
S'X'
sS'step_size'
p129
F2.0000000000000002e-05
sS'mode'
p130
S'move_abs'
p131
sg103
g17
(g119
g104
(lp132
g106
((I3
I3
I0
tp133
tRp134
atRp135
(dp136
g23
S'provides_items'
p137
sg25
g103
sbsS'stop_pos'
p138
F0.00050000000000000001
sg118
g17
(g119
g104
(lp139
g108
ag110
ag112
atRp140
(dp141
g23
S'requires_items'
p142
sg25
g118
sbsS'phy_name'
p143
S''
sS'reverse_at_end'
p144
I01
sbsS'done_callback'
p145
ctraits.trait_base
_Undefined
p146
(tRp147
sS'paused'
p148
I00
sS'measurement'
p149
g1
(cmeasurements
VoltageMeasurement
p150
tRp151
(dp152
S'current_idx'
p153
(tsS'update_mode'
p154
cconstants
UpdateDataMode
p155
(I4
tRp156
sS'display_options'
p157
g17
(ctraits.trait_handlers
TraitDictObject
p158
c__builtin__
dict
p159
(dp160
cconstants
DataDimension
p161
(I0
tRp162
cdata_viewers
OneDViewer
p163
sg161
(I1
tRp164
g163
sg161
(I2
tRp165
cdata_viewers
TwoDViewer
p166
sg161
(I3
tRp167
cdata_viewers
XYSliceBrowser
p168
stRp169
(dp170
g23
S'display_options_items'
p171
sg25
g157
sbsg25
V1
sS'source'
p172
g1
(cdaq_control
MeasureVoltageChannel
p173
tRp174
(dp175
g5
g6
sS'phys_name'
p176
VDev2/ai0
p177
sg97
F10
sS'vmin'
p178
I-10
sS'nsamp'
p179
I100
sS'_kind'
p180
S'Measure Voltage'
p181
sS'channel_type'
p182
S''
sS'vmax'
p183
I10
sg103
g104
((lp184
g106
((I1
I1
I1
tp185
tRp186
atRp187
sS'terminal_cfg'
p188
cnidaqmx.constants
TerminalConfiguration
p189
(I-1
tRp190
sS'units'
p191
cnidaqmx.constants
VoltageUnits
p192
(I10348
tRp193
sg118
g17
(g119
g104
(lp194
g106
((I1
I0
I0
tp195
tRp196
atRp197
(dp198
g23
S'requires_items'
p199
sg25
g118
sbsS'user_name'
p200
S''
sbsS'flex_mode'
p201
I00
sS'dtype'
p202
Nsg145
g147
sS'calc_diff'
p203
I00
sS'save_results'
p204
I01
sS'channel_name'
p205
S''
sS'experiment'
p206
I01
sS'preview_dim'
p207
g165
sg103
g17
(g119
g104
(ltRp208
(dp209
g23
S'provides_items'
p210
sg25
g103
sbsS'positions'
p211
cnumpy.core.multiarray
_reconstruct
p212
(cnumpy
ndarray
p213
(I0
tS'b'
tRp214
(I1
(L0L
tcnumpy
dtype
p215
(S'i4'
I0
I1
tRp216
(I3
S'<'
NNNI-1
I-1
I0
tbI00
S''
tbsS'initialized'
p217
I00
sS'every_N_callback'
p218
g147
sS'apply'
p219
S'median'
p220
sg5
g6
sbsS'meas_delay'
p221
F0.029999999999999999
sS'perc_done'
p222
F0
sS'ndone'
p223
I0
sS'measurements'
p224
g17
(g18
g19
(lp225
g1
(cmeasurements
FrequencyMeasurement
p226
tRp227
(dp228
g153
(tsg154
g156
sg157
g17
(g158
g159
(dp229
g162
g163
sg164
g163
sg165
g166
sg167
g168
stRp230
(dp231
g23
S'display_options_items'
p232
sg25
g157
sbsg25
Vdc
p233
sg201
I00
sg202
Nsg145
g147
sg203
I00
sg204
I01
sg172
g1
(cdaq_control
MeasureFrequencyChannel
p234
tRp235
(dp236
g5
g6
sS'meas_method'
p237
cnidaqmx.constants
CounterFrequencyMethod
p238
(I10205
tRp239
sg176
VDev2/ctr1
p240
sS'divisor'
p241
I4
sS'minval'
p242
F100
sS'_kind'
p243
S'Measure Frequency'
p244
sg179
I100
sg97
F10
sg118
g17
(g119
g104
(lp245
g196
atRp246
(dp247
g23
S'requires_items'
p248
sg25
g118
sbsg182
S''
sS'edge'
p249
cnidaqmx.constants
Edge
p250
(I10280
tRp251
sg103
g104
((lp252
g106
((I1
I1
I3
tp253
tRp254
atRp255
sS'maxval'
p256
F1000000
sg191
cnidaqmx.constants
FrequencyUnits
p257
(I10373
tRp258
sS'meas_time'
p259
F0.001
sg200
S''
sbsg206
I01
sg207
g165
sg103
g17
(g119
g104
(ltRp260
(dp261
g23
S'provides_items'
p262
sg25
g103
sbsg211
g212
(g213
(I0
tS'b'
tRp263
(I1
(L0L
tg216
I00
S''
tbsg217
I00
sg218
g147
sg219
g220
sg5
g6
sbag151
ag1
(g150
tRp264
(dp265
g153
(tsg154
g156
sg157
g17
(g158
g159
(dp266
g162
g163
sg164
g163
sg165
g166
sg167
g168
stRp267
(dp268
g23
S'display_options_items'
p269
sg25
g157
sbsg25
V3
sg172
g1
(g173
tRp270
(dp271
g5
g6
sg176
VDev2/ai1
p272
sg97
F10
sg178
I-10
sg179
I100
sS'_kind'
p273
g181
sg182
S''
sg183
I10
sg103
g187
sg188
g190
sg191
g193
sg118
g17
(g119
g104
(lp274
g196
atRp275
(dp276
g23
S'requires_items'
p277
sg25
g118
sbsg200
S''
sbsg201
I00
sg202
Nsg145
g147
sg203
I00
sg204
I01
sg205
S''
sg206
I01
sg207
g165
sg103
g17
(g119
g104
(ltRp278
(dp279
g23
S'provides_items'
p280
sg25
g103
sbsg211
g212
(g213
(I0
tS'b'
tRp281
(I1
(L0L
tg216
I00
S''
tbsg217
I00
sg218
g147
sg219
g220
sg5
g6
sbag1
(g150
tRp282
(dp283
g153
(tsg154
g156
sg157
g17
(g158
g159
(dp284
g162
g163
sg164
g163
sg165
g166
sg167
g168
stRp285
(dp286
g23
S'display_options_items'
p287
sg25
g157
sbsg25
V4
sg172
g1
(g173
tRp288
(dp289
g5
g6
sg176
VDev2/ai2
p290
sg97
F10
sg178
I-10
sg179
I100
sS'_kind'
p291
g181
sg182
S''
sg183
I10
sg103
g187
sg188
g190
sg191
g193
sg118
g17
(g119
g104
(lp292
g196
atRp293
(dp294
g23
S'requires_items'
p295
sg25
g118
sbsg200
S''
sbsg201
I00
sg202
Nsg145
g147
sg203
I00
sg204
I01
sg205
S''
sg206
I01
sg207
g165
sg103
g17
(g119
g104
(ltRp296
(dp297
g23
S'provides_items'
p298
sg25
g103
sbsg211
g212
(g213
(I0
tS'b'
tRp299
(I1
(L0L
tg216
I00
S''
tbsg217
I00
sg218
g147
sg219
g220
sg5
g6
sbatRp300
(dp301
g23
S'measurements_items'
p302
sg25
g224
sbsS'pre_allocate_memory'
p303
I01
sS'user_wants_stop'
p304
I00
sS'add_meas_type'
p305
S'Voltage'
p306
sS'status'
p307
cconstants
ExperimentStatus
p308
(I0
tRp309
sS'start_time'
p310
F0
sS'every_step_callback'
p311
g147
sS'volume'
p312
(F0.001
F0.001
F0.001
tp313
sS'debug'
p314
I00
sS'running'
p315
I00
sS'scan_center'
p316
(F0
F0
F0
tp317
sS'axis_control'
p318
g1
(cmanual_controls
XYZStageController
p319
tRp320
(dp321
g5
g6
sS'step_nm'
p322
F2
sS'RL_rev'
p323
I00
sg25
S'Stage Navigator'
p324
sS'UD'
p325
I3
sS'mapping'
p326
(dp327
S'B'
S'FB'
p328
sS'D'
g325
sS'F'
g328
sS'L'
S'RL'
p329
sS'R'
g329
sS'U'
g325
ssS'pos_nm'
p330
F0
sg328
I2
sS'step_factor'
p331
I1
sS'pos_um'
p332
F0
sg103
g17
(g119
g104
(ltRp333
(dp334
g23
S'provides_items'
p335
sg25
g103
sbsS'UD_rev'
p336
I00
sg329
I1
sS'FB_rev'
p337
I00
sg118
g17
(g119
g104
(ltRp338
(dp339
g23
S'requires_items'
p340
sg25
g118
sbsS'pos_mm'
p341
F0
sg84
g17
(g18
g19
(ltRp342
(dp343
g23
S'reverse_items'
p344
sg25
g84
sbsbsS'perc_done_bar'
p345
V
sg25
S'SW Synchronized Scan'
p346
sg211
g212
(g213
(I0
tS'b'
tRp347
(I1
(L1L
L3L
tg215
(S'f8'
I0
I1
tRp348
(I3
S'<'
NNNI-1
I-1
I0
tbI00
S'\x00\x00\x00\x00\x00\x00\x00\x00\x00\x00\x00\x00\x00\x00\x00\x00\x00\x00\x00\x00\x00\x00\x00\x00'
tbsS'pos_idx'
p349
(I0
I0
I0
tp350
sS'steps'
p351
(F5.0000000000000002e-05
F5.0000000000000002e-05
F5.0000000000000002e-05
tp352
sS'end_time'
p353
F0
sS'scan_axes'
p354
g17
(g18
g19
(lp355
g1
(g80
tRp356
(dp357
g5
g6
sg83
F-0.00050000000000000001
sg84
I00
sg85
g87
sg126
I2
sg127
I0
sg128
S'Y'
sg129
F2.0000000000000002e-05
sg130
g131
sg103
g17
(g119
g104
(lp358
g134
atRp359
(dp360
g23
S'provides_items'
p361
sg25
g103
sbsg138
F0.00050000000000000001
sg118
g17
(g119
g104
(lp362
g108
ag110
ag112
atRp363
(dp364
g23
S'requires_items'
p365
sg25
g118
sbsg143
S''
sg144
I01
sbag81
atRp366
(dp367
g23
S'scan_axes_items'
p368
sg25
g354
sbsS'position'
p369
(F0
F0
F0
tp370
sS'queued'
p371
I00
sbatRp372
(dp373
g23
S'experiments_items'
p374
sg25
g74
sbsg5
g6
sg206
NsS'add_type'
p375
S'SW Synchronized Scan'
p376
sg25
S'Manager'
p377
sbag1
(cdevice_manager
DeviceManager
p378
tRp379
(dp380
S'available'
p381
g17
(g18
g19
(lp382
cdevices
MicronixStage
p383
acdevices
OpenCVCamera
p384
acdevices
NIDAQ
p385
acdevices
PicomotorStage
p386
acdevices
HamamatsuCameraGUI
p387
acdevices
OxxiusLaser
p388
acdevices
MockMicronixStage
p389
acdevices
MockCamera
p390
atRp391
(dp392
g23
S'available_items'
p393
sg25
g381
sbsS'included'
p394
g17
(g18
g19
(lp395
g383
ag384
ag385
ag386
ag387
ag388
ag389
ag390
atRp396
(dp397
g23
S'included_items'
p398
sg25
g394
sbsg5
g6
sg25
S'Devices'
p399
sS'devices'
p400
g17
(g18
g19
(lp401
g1
(g383
tRp402
(dp403
g5
g6
sS'feedback'
p404
I0
sS'encoder_res'
p405
F0
sS'pid'
p406
I0
sS'motor_pol'
p407
I0
sS'deadband'
p408
(I1
F0
tp409
sS'acceleration'
p410
F0
sS'error_log'
p411
g17
(g18
g19
(ltRp412
(dp413
g23
S'error_log_items'
p414
sg25
g411
sbsS'encoder_velocity'
p415
F0
sS'encoder_pol'
p416
I0
sS'version'
p417
S''
sS'io_function'
p418
I0
sg103
g17
(g119
g104
(ltRp419
(dp420
g23
S'provides_items'
p421
sg25
g103
sbsS'pos_lim'
p422
F0
sS'status_names'
p423
g17
(g18
g19
(lp424
S'Error'
p425
aS'Accelerating'
p426
aS'Const. Velocity'
p427
aS'Decelerating'
p428
aS'Stopped'
p429
aS'Program Running'
p430
aS'Positive Switch'
p431
aS'Negetive Switch'
p432
atRp433
(dp434
g23
S'status_names_items'
p435
sg25
g423
sbsS'just_read'
p436
I01
sS'enable_limit'
p437
I0
sS'io_pin'
p438
I1
sS'encoder'
p439
I0
sg128
S'None'
p440
sg126
I1
sg25
S'Micronix Stage'
p441
sS'neg_lim'
p442
F0
sS'resolution'
p443
I0
sS'status_bits'
p444
(lp445
cnumpy.core.multiarray
scalar
p446
(g215
(S'u1'
I0
I1
tRp447
(I3
S'|'
NNNI-1
I-1
I0
tbS'\x00'
tRp448
ag446
(g447
S'\x00'
tRp449
ag446
(g447
S'\x00'
tRp450
ag446
(g447
S'\x00'
tRp451
ag446
(g447
S'\x00'
tRp452
ag446
(g447
S'\x00'
tRp453
ag446
(g447
S'\x00'
tRp454
ag446
(g447
S'\x00'
tRp455
asS'status_byte'
p456
I0
sS'max_velocity'
p457
F0
sS'max_acceleration'
p458
F0
sS'velocity'
p459
F0
sg118
g17
(g119
g104
(ltRp460
(dp461
g23
S'requires_items'
p462
sg25
g118
sbsS'deceleration'
p463
F0
sbag1
(g384
tRp464
(dp465
g5
g6
sS'color_mode'
p466
S'GREYSCALE'
p467
sg25
S'Generic Camera'
p468
sS'image'
p469
g212
(g213
(I0
tS'b'
tRp470
(I1
(L0L
tg216
I00
S''
tbsS'recording'
p471
I00
sS'shape'
p472
(I480
I640
I0
tp473
sS'read_mode'
p474
cconstants
ReadMode
p475
(I0
tRp476
sS'gain'
p477
I1
sg103
g17
(g119
g104
(lp478
g106
((I2
I1
I0
tp479
tRp480
atRp481
(dp482
g23
S'provides_items'
p483
sg25
g103
sbsS'cam_num'
p484
I0
sg217
I00
sS'buffer_size'
p485
I100
sg304
I00
sg118
g17
(g119
g104
(ltRp486
(dp487
g23
S'requires_items'
p488
sg25
g118
sbsS'exposure'
p489
I5
sbag1
(g385
tRp490
(dp491
g5
g6
sS'di_line_names'
p492
g17
(g18
g19
(lp493
VDev2/port0/line0
p494
aVDev2/port0/line1
p495
aVDev2/port0/line2
p496
aVDev2/port0/line3
p497
aVDev2/port0/line4
p498
aVDev2/port0/line5
p499
aVDev2/port0/line6
p500
aVDev2/port0/line7
p501
aVDev2/port0/line8
p502
aVDev2/port0/line9
p503
aVDev2/port0/line10
p504
aVDev2/port0/line11
p505
aVDev2/port0/line12
p506
aVDev2/port0/line13
p507
aVDev2/port0/line14
p508
aVDev2/port0/line15
p509
aVDev2/port0/line16
p510
aVDev2/port0/line17
p511
aVDev2/port0/line18
p512
aVDev2/port0/line19
p513
aVDev2/port0/line20
p514
aVDev2/port0/line21
p515
aVDev2/port0/line22
p516
aVDev2/port0/line23
p517
aVDev2/port0/line24
p518
aVDev2/port0/line25
p519
aVDev2/port0/line26
p520
aVDev2/port0/line27
p521
aVDev2/port0/line28
p522
aVDev2/port0/line29
p523
aVDev2/port0/line30
p524
aVDev2/port0/line31
p525
aVDev2/port1/line0
p526
aVDev2/port1/line1
p527
aVDev2/port1/line2
p528
aVDev2/port1/line3
p529
aVDev2/port1/line4
p530
aVDev2/port1/line5
p531
aVDev2/port1/line6
p532
aVDev2/port1/line7
p533
aVDev2/port2/line0
p534
aVDev2/port2/line1
p535
aVDev2/port2/line2
p536
aVDev2/port2/line3
p537
aVDev2/port2/line4
p538
aVDev2/port2/line5
p539
aVDev2/port2/line6
p540
aVDev2/port2/line7
p541
atRp542
(dp543
g23
S'di_line_names_items'
p544
sg25
g492
sbsS'tasks'
p545
g17
(g18
g19
(lp546
g1
(cdaq_control
VITask
p547
tRp548
(dp549
S'ext_start_trigger'
p550
I00
sg5
g6
sg304
I00
sS'run'
p551
I01
sg25
S'Voltage In'
p552
sS'clk_source'
p553
S'Internal'
p554
sS'clk_edge_name'
p555
S'Rising'
p556
sS'configured'
p557
I00
sS'start_trig_chan'
p558
NsS'samp_per_chan'
p559
I100
sS'channels'
p560
g17
(g18
g19
(lp561
g174
ag270
ag288
atRp562
(dp563
g23
S'channels_items'
p564
sg25
g560
sbsS'clk_rate'
p565
F10000
sg315
I00
sS'ext_clk_chan'
p566
NsS'every_n_callback'
p567
g147
sg97
F1
sg145
g147
sS'start_trig_edge_name'
p568
g556
sS'sample_mode_name'
p569
S'FiniteSamps'
p570
sS'channel'
p571
g288
sbag1
(cdaq_control
FrequencyTask
p572
tRp573
(dp574
g550
I00
sg5
g6
sg304
I00
sg551
I01
sg25
S'Frequency In'
p575
sg553
g554
sg555
g556
sg557
I00
sg558
Nsg559
I100
sg560
g17
(g18
g19
(lp576
g235
atRp577
(dp578
g23
S'channels_items'
p579
sg25
g560
sbsg565
F10000
sg315
I00
sg566
Nsg567
g147
sg97
F1
sg145
g147
sg568
g556
sg569
g570
sg571
g235
sbatRp580
(dp581
g23
S'tasks_items'
p582
sg25
g545
sbsg25
S'M_SERIES_DAQ USB-6229 (BNC)'
p583
sS'ao_chan_names'
p584
g17
(g18
g19
(lp585
VDev2/ao0
p586
aVDev2/ao1
p587
aVDev2/ao2
p588
aVDev2/ao3
p589
atRp590
(dp591
g23
S'ao_chan_names_items'
p592
sg25
g584
sbsS'add_kind'
p593
S'Frequency In Task'
p594
sS'ai_chan_names'
p595
g17
(g18
g19
(lp596
VDev2/ai0
p597
aVDev2/ai1
p598
aVDev2/ai2
p599
aVDev2/ai3
p600
aVDev2/ai4
p601
aVDev2/ai5
p602
aVDev2/ai6
p603
aVDev2/ai7
p604
aVDev2/ai8
p605
aVDev2/ai9
p606
aVDev2/ai10
p607
aVDev2/ai11
p608
aVDev2/ai12
p609
aVDev2/ai13
p610
aVDev2/ai14
p611
aVDev2/ai15
p612
aVDev2/ai16
p613
aVDev2/ai17
p614
aVDev2/ai18
p615
aVDev2/ai19
p616
aVDev2/ai20
p617
aVDev2/ai21
p618
aVDev2/ai22
p619
aVDev2/ai23
p620
aVDev2/ai24
p621
aVDev2/ai25
p622
aVDev2/ai26
p623
aVDev2/ai27
p624
aVDev2/ai28
p625
aVDev2/ai29
p626
aVDev2/ai30
p627
aVDev2/ai31
p628
atRp629
(dp630
g23
S'ai_chan_names_items'
p631
sg25
g595
sbsg400
g17
(g18
g19
(lp632
VDev2
p633
atRp634
(dp635
g23
S'devices_items'
p636
sg25
g400
sbsS'do_line_names'
p637
g17
(g18
g19
(lp638
VDev2/port0/line0
p639
aVDev2/port0/line1
p640
aVDev2/port0/line2
p641
aVDev2/port0/line3
p642
aVDev2/port0/line4
p643
aVDev2/port0/line5
p644
aVDev2/port0/line6
p645
aVDev2/port0/line7
p646
aVDev2/port0/line8
p647
aVDev2/port0/line9
p648
aVDev2/port0/line10
p649
aVDev2/port0/line11
p650
aVDev2/port0/line12
p651
aVDev2/port0/line13
p652
aVDev2/port0/line14
p653
aVDev2/port0/line15
p654
aVDev2/port0/line16
p655
aVDev2/port0/line17
p656
aVDev2/port0/line18
p657
aVDev2/port0/line19
p658
aVDev2/port0/line20
p659
aVDev2/port0/line21
p660
aVDev2/port0/line22
p661
aVDev2/port0/line23
p662
aVDev2/port0/line24
p663
aVDev2/port0/line25
p664
aVDev2/port0/line26
p665
aVDev2/port0/line27
p666
aVDev2/port0/line28
p667
aVDev2/port0/line29
p668
aVDev2/port0/line30
p669
aVDev2/port0/line31
p670
aVDev2/port1/line0
p671
aVDev2/port1/line1
p672
aVDev2/port1/line2
p673
aVDev2/port1/line3
p674
aVDev2/port1/line4
p675
aVDev2/port1/line5
p676
aVDev2/port1/line6
p677
aVDev2/port1/line7
p678
aVDev2/port2/line0
p679
aVDev2/port2/line1
p680
aVDev2/port2/line2
p681
aVDev2/port2/line3
p682
aVDev2/port2/line4
p683
aVDev2/port2/line5
p684
aVDev2/port2/line6
p685
aVDev2/port2/line7
p686
atRp687
(dp688
g23
S'do_line_names_items'
p689
sg25
g637
sbsS'dev_name'
p690
g633
sS'task'
p691
g548
sg103
g17
(g119
g104
(ltRp692
(dp693
g23
S'provides_items'
p694
sg25
g103
sbsS'di_port_names'
p695
g17
(g18
g19
(lp696
VDev2/port0
p697
aVDev2/port1
p698
aVDev2/port2
p699
atRp700
(dp701
g23
S'di_port_names_items'
p702
sg25
g695
sbsS'co_chan_names'
p703
g17
(g18
g19
(lp704
VDev2/ctr0
p705
aVDev2/ctr1
p706
aVDev2/freqout
p707
atRp708
(dp709
g23
S'co_chan_names_items'
p710
sg25
g703
sbsS'dev_cat'
p711
S'M_SERIES_DAQ'
p712
sS'do_port_names'
p713
g17
(g18
g19
(lp714
VDev2/port0
p715
aVDev2/port1
p716
aVDev2/port2
p717
atRp718
(dp719
g23
S'do_port_names_items'
p720
sg25
g713
sbsg118
g17
(g119
g104
(ltRp721
(dp722
g23
S'requires_items'
p723
sg25
g118
sbsS'model'
p724
VUSB-6229 (BNC)
p725
sS'ci_chan_names'
p726
g17
(g18
g19
(lp727
VDev2/ctr0
p728
aVDev2/ctr1
p729
atRp730
(dp731
g23
S'ci_chan_names_items'
p732
sg25
g726
sbsbag1
(g386
tRp733
(dp734
g5
g6
sg118
g17
(g119
g104
(ltRp735
(dp736
g23
S'requires_items'
p737
sg25
g118
sbsg25
S'Picomotor'
p738
sbag1
(g387
tRp739
(dp740
g5
g6
sg25
S'Hamamatsu Camera'
p741
sg471
I00
sg472
(I2048
I2048
tp742
sg474
g476
sg477
I1
sg103
g17
(g119
g104
(lp743
g480
atRp744
(dp745
g23
S'provides_items'
p746
sg25
g103
sbsg484
I0
sg217
I00
sg485
I100
sg304
I00
sg118
g17
(g119
g104
(ltRp747
(dp748
g23
S'requires_items'
p749
sg25
g118
sbsS'properties'
p750
g17
(g18
g19
(ltRp751
(dp752
g23
S'properties_items'
p753
sg25
g750
sbsg489
F0.001
sbag1
(g388
tRp754
(dp755
S'base_plate_temp'
p756
F0
sg5
g6
sS'measured_diode_temp'
p757
F10
sS'cdrh_state'
p758
I0
sS'laser_diode_current'
p759
F0
sS'interlock_state'
p760
I0
sS'analog_control_mode'
p761
I0
sS'input_voltage'
p762
F5
sS'current_set_point'
p763
F0
sS'emission_activation'
p764
I0
sS'power_set_point'
p765
F0
sS'processor_temp'
p766
F0
sS'tec_enable'
p767
I0
sS'modulation_state'
p768
I1
sg103
g17
(g119
g104
(ltRp769
(dp770
g23
S'provides_items'
p771
sg25
g103
sbsS'cum_time_of_operation'
p772
F0
sS'digital_modulation_state'
p773
I0
sS'measured_module_temp'
p774
F5
sS'software_version'
p775
S''
sS'fault_number'
p776
I0
sS'max_laser_power'
p777
F500
sg436
I00
sS'max_laser_current'
p778
F1000
sg85
g1
(ccontrollers
OxxiusLaserController
p779
tRp780
(dp781
g5
g6
sg89
I00
sg90
I00
sg99
S'\n'
sg25
S'Oxxius Laser Controller'
p782
sg93
g95
sg97
I1000
sg98
I19200
sg91
S''
sS'settable'
p783
g17
(g18
g19
(lp784
S'analog_control_mode'
p785
aS'analog_modulation_state'
p786
aS'laser_diode_current'
p787
aS'cdrh_state'
p788
aS'modulation_state'
p789
aS'laser_emission_activation'
p790
aS'laser_output_power'
p791
aS'tec_state'
p792
aS'emission_activation'
p793
aS'alarm_reset'
p794
aS'tec_enable'
p795
aS'digital_modulation_state'
p796
atRp797
(dp798
g23
S'settable_items'
p799
sg25
g783
sbsg101
S''
sg103
g17
(g119
g104
(ltRp800
(dp801
g23
S'provides_items'
p802
sg25
g103
sbsg114
S'\r\n'
p803
sg115
I8
sg118
g17
(g119
g104
(ltRp804
(dp805
g23
S'requires_items'
p806
sg25
g118
sbsg123
S'*IDN?'
p807
sg116
g117
sbsS'laser_output_power'
p808
F0
sS'report'
p809
S''
sS'diode_temp_set_point'
p810
F20
sg25
S'OxxiusLaser'
p811
sS'analog_modulation_state'
p812
I0
sS'laser_emission_activation'
p813
I0
sS'serial_num_and_wavelength'
p814
S''
sS'operating_status'
p815
I1
sg118
g17
(g119
g104
(ltRp816
(dp817
g23
S'requires_items'
p818
sg25
g118
sbsbag1
(g389
tRp819
(dp820
g5
g6
sg404
I0
sg405
F0
sg406
I0
sg407
I0
sg408
g409
sg410
F0
sg457
F0
sg415
F0
sg416
I0
sg417
S''
sg418
I0
sg103
g17
(g119
g104
(ltRp821
(dp822
g23
S'provides_items'
p823
sg25
g103
sbsg422
F0
sg423
g17
(g18
g19
(lp824
g425
ag426
ag427
ag428
ag429
ag430
ag431
ag432
atRp825
(dp826
g23
S'status_names_items'
p827
sg25
g423
sbsg436
I01
sg437
I0
sg438
I1
sg439
I0
sg128
g440
sg126
I1
sg25
S'Mock Stage'
p828
sg442
F0
sg118
g17
(g119
g104
(ltRp829
(dp830
g23
S'requires_items'
p831
sg25
g118
sbsg444
(lp832
g446
(g447
S'\x00'
tRp833
ag446
(g447
S'\x00'
tRp834
ag446
(g447
S'\x00'
tRp835
ag446
(g447
S'\x00'
tRp836
ag446
(g447
S'\x00'
tRp837
ag446
(g447
S'\x00'
tRp838
ag446
(g447
S'\x00'
tRp839
ag446
(g447
S'\x00'
tRp840
asg456
I0
sg85
g1
(ccontrollers
MockMicronixStageController
p841
tRp842
(dp843
g5
g6
sS'_positions'
p844
g17
(g158
g159
(dtRp845
(dp846
g23
S'_positions_items'
p847
sg25
g844
sbsg118
g17
(g119
g104
(ltRp848
(dp849
g23
S'requires_items'
p850
sg25
g118
sbsg25
S'Mock Micronix Stage Controller'
p851
sg103
g17
(g119
g104
(ltRp852
(dp853
g23
S'provides_items'
p854
sg25
g103
sbsbsg411
g17
(g18
g19
(ltRp855
(dp856
g23
S'error_log_items'
p857
sg25
g411
sbsg458
F0
sg459
F0
sg443
I0
sg463
F0
sbag1
(g390
tRp858
(dp859
g5
g6
sS'frate'
p860
I100
sS'_shift'
p861
I0
sg471
I00
sg472
(I50
I50
tp862
sg474
g476
sg103
g17
(g119
g104
(lp863
g480
atRp864
(dp865
g23
S'provides_items'
p866
sg25
g103
sbsg485
I100
sg217
I00
sg304
I00
sg118
g17
(g119
g104
(ltRp867
(dp868
g23
S'requires_items'
p869
sg25
g118
sbsg25
S'Mock Camera'
p870
sbatRp871
(dp872
g23
S'devices_items'
p873
sg25
g400
sbsbag1
(ccontrol_manager
ControlManager
p874
tRp875
(dp876
g5
g6
sg25
S'Manual Controls'
p877
sS'controls'
p878
g17
(g18
g19
(lp879
g1
(cmanual_controls
ManualMeasurement
p880
tRp881
(dp882
g5
g6
sg259
I12
sg25
S'Measurement'
p883
sg224
g17
(g18
g19
(lp884
g1
(cmeasurements
CounterMeasurement
p885
tRp886
(dp887
g153
(tsg154
g156
sg157
g17
(g158
g159
(dp888
g162
g163
sg164
g163
sg165
g166
sg167
g168
stRp889
(dp890
g23
S'display_options_items'
p891
sg25
g157
sbsg25
S'Counter Measurement'
p892
sg201
I00
sg202
Nsg145
g147
sg203
I00
sg204
I01
sg172
Nsg207
g165
sg103
g17
(g119
g104
(ltRp893
(dp894
g23
S'provides_items'
p895
sg25
g103
sbsg211
g212
(g213
(I0
tS'b'
tRp896
(I1
(L0L
tg216
I00
S''
tbsg217
I00
sg218
g147
sg219
g220
sg5
g6
sbag1
(g150
tRp897
(dp898
g153
(tsg154
g156
sg157
g17
(g158
g159
(dp899
g162
g163
sg164
g163
sg165
g166
sg167
g168
stRp900
(dp901
g23
S'display_options_items'
p902
sg25
g157
sbsg25
S'Voltage Measurement'
p903
sg172
Nsg201
I00
sg202
Nsg145
g147
sg203
I00
sg204
I01
sg205
S''
sg207
g165
sg103
g17
(g119
g104
(ltRp904
(dp905
g23
S'provides_items'
p906
sg25
g103
sbsg211
g212
(g213
(I0
tS'b'
tRp907
(I1
(L0L
tg216
I00
S''
tbsg217
I00
sg218
g147
sg219
g220
sg5
g6
sbatRp908
(dp909
g23
S'measurements_items'
p910
sg25
g224
sbsg375
S'Counter Measurement'
p911
sg103
g17
(g119
g104
(ltRp912
(dp913
g23
S'provides_items'
p914
sg25
g103
sbsg148
I00
sS'max_num_points'
p915
I1000
sg315
I00
sS'sample_rate'
p916
I20
sg130
S'Rolling'
p917
sS'num_ticks'
p918
I0
sg149
g886
sg219
S'mean'
p919
sg304
I00
sg118
g17
(g119
g104
(ltRp920
(dp921
g23
S'requires_items'
p922
sg25
g118
sbsbag320
ag1
(cmanual_controls
ManualCameraMeasurement
p923
tRp924
(dp925
g5
g6
sg223
I0
sg25
S'Camera and Stage'
p926
sS'ncapt'
p927
I100
sg103
g17
(g119
g104
(ltRp928
(dp929
g23
S'provides_items'
p930
sg25
g103
sbsg148
I00
sg315
I00
sg259
I10
sg130
S'Live'
p931
sS'fps'
p932
I10
sg217
I00
sg304
I00
sg118
g104
((lp933
g480
atRp934
sS'captured'
p935
g17
(g18
g19
(ltRp936
(dp937
g23
S'captured_items'
p938
sg25
g935
sbsbag1
(cmanual_controls
ManualStageControl
p939
tRp940
(dp941
g5
g6
sg25
S'Stage Position'
p942
sg118
g17
(g119
g104
(ltRp943
(dp944
g23
S'requires_items'
p945
sg25
g118
sbsS'x_axis'
p946
g1
(cmanual_controls
ManualAxisControl
p947
tRp948
(dp949
S'up_name'
p950
S'Down'
p951
sg5
g6
sg25
S'Z'
sg85
g87
sg126
I3
sS'target_pos'
p952
F0
sg129
F0.001
sS'enable_mov'
p953
I00
sg332
F0
sg103
g17
(g119
g104
(ltRp954
(dp955
g23
S'provides_items'
p956
sg25
g103
sbsg330
F0
sg369
(F0
F0
tp957
sg118
g17
(g119
g104
(ltRp958
(dp959
g23
S'requires_items'
p960
sg25
g118
sbsg341
F0
sS'down_name'
p961
S'Up'
p962
sbsg103
g17
(g119
g104
(ltRp963
(dp964
g23
S'provides_items'
p965
sg25
g103
sbsS'y_axis'
p966
g948
sS'z_axis'
p967
g948
sbatRp968
(dp969
g23
S'controls_items'
p970
sg25
g878
sbsbag1
(cglobal_state_manager
GlobalStateManager
p971
tRp972
(dp973
g5
g6
sS'global_states'
p974
g17
(g18
g19
(lp975
g1
(cglobal_states
MockDAQRead
p976
tRp977
(dp978
g5
g6
sg545
g17
(g18
g19
(lp979
g548
ag573
atRp980
(dp981
g23
S'tasks_items'
p982
sg25
g545
sbsg25
S'Mock DAQ Read'
p983
sg118
g104
((lp984
g106
((I1
I1
I0
tp985
tRp986
atRp987
sS'sel_task'
p988
NsS'data'
p989
g17
(g158
g159
(dtRp990
(dp991
g23
S'data_items'
p992
sg25
g989
sbsg691
NsS'active'
p993
I00
sg217
I00
sS'device_manager'
p994
g379
sbag1
(cglobal_states
DAQRead
p995
tRp996
(dp997
g5
g6
sg691
Nsg25
S'DAQ Read'
p998
sg118
g104
((lp999
g986
atRp1000
sg988
Nsg994
g379
sg545
g17
(g18
g19
(lp1001
g548
ag573
atRp1002
(dp1003
g23
S'tasks_items'
p1004
sg25
g545
sbsg993
I00
sg217
I00
sg989
g17
(g158
g159
(dtRp1005
(dp1006
g23
S'data_items'
p1007
sg25
g989
sbsbag1
(cglobal_states
CameraRead
p1008
tRp1009
(dp1010
g5
g6
sg25
S'Camera Read'
p1011
sg994
g379
sS'cameras'
p1012
g17
(g18
g19
(ltRp1013
(dp1014
g23
S'cameras_items'
p1015
sg25
g1012
sbsS'camera'
p1016
Nsg993
I00
sg217
I00
sg118
g104
((lp1017
g480
atRp1018
sbag1
(cglobal_states
DAQWrite
p1019
tRp1020
(dp1021
g5
g6
sg545
g17
(g18
g19
(ltRp1022
(dp1023
g23
S'tasks_items'
p1024
sg25
g545
sbsg25
S'DAQ Write'
p1025
sg994
g379
sg988
Nsg691
Nsg993
I00
sg217
I00
sg118
g104
((lp1026
g106
((I1
I2
I0
tp1027
tRp1028
atRp1029
sbag1
(cglobal_states
MultiState
p1030
tRp1031
(dp1032
g5
g6
sg25
S'Multi State'
p1033
sg994
g379
sg593
S'Mock DAQ Read'
p1034
sS'states'
p1035
g17
(g18
g19
(ltRp1036
(dp1037
g23
S'states_items'
p1038
sg25
g1035
sbsS'state'
p1039
Nsg993
I00
sg217
I00
sg118
g17
(g119
g104
(ltRp1040
(dp1041
g23
S'requires_items'
p1042
sg25
g118
sbsbatRp1043
(dp1044
g23
S'global_states_items'
p1045
sg25
g974
sbsg25
S'Global States'
p1046
sS'active_state'
p1047
NsS'selected_name'
p1048
S''
sS'global_state'
p1049
g996
sS'available_state_types'
p1050
g17
(g18
g19
(lp1051
g1034
aS'DAQ Read'
p1052
aS'Camera Read'
p1053
aS'DAQ Write'
p1054
aS'Multiple'
p1055
atRp1056
(dp1057
g23
S'available_state_types_items'
p1058
sg25
g1050
sbsbatRp1059
(dp1060
g23
S'managers_items'
p1061
sg25
g69
sbsg25
S'Microscope'
p1062
sb.